; Function Attrs: nounwind uwtable
define i32 @SSL_CTX_use_RSAPrivateKey_file(ptr noundef %0, ptr noundef %1, i32 noundef %2) local_unnamed_addr #0 {
  %4 = icmp eq ptr %1, null
  br i1 %4, label %5, label %6

5:                                                ; preds = %3
  tail call void @ERR_new() #3
  tail call void @ERR_set_debug(ptr noundef nonnull @.str, i32 noundef 137, ptr noundef nonnull @__func__.SSL_CTX_use_RSAPrivateKey_file) #3
  tail call void (i32, i32, ptr, ...) @ERR_set_error(i32 noundef 20, i32 noundef 786690, ptr noundef null) #3
  br label %29

6:                                                ; preds = %3
  %7 = tail call ptr @BIO_s_file() #3
  %8 = tail call ptr @BIO_new(ptr noundef %7) #3
  %9 = icmp eq ptr %8, null
  br i1 %9, label %10, label %11

10:                                               ; preds = %6
  tail call void @ERR_new() #3
  tail call void @ERR_set_debug(ptr noundef nonnull @.str, i32 noundef 143, ptr noundef nonnull @__func__.SSL_CTX_use_RSAPrivateKey_file) #3
  tail call void (i32, i32, ptr, ...) @ERR_set_error(i32 noundef 20, i32 noundef 524295, ptr noundef null) #3
  br label %29

11:                                               ; preds = %6
  %12 = tail call i64 @BIO_ctrl(ptr noundef nonnull %8, i32 noundef 108, i64 noundef 3, ptr noundef nonnull %1) #3
  %13 = trunc i64 %12 to i32
  %14 = icmp slt i32 %13, 1
  br i1 %14, label %15, label %16

15:                                               ; preds = %11
  tail call void @ERR_new() #3
  tail call void @ERR_set_debug(ptr noundef nonnull @.str, i32 noundef 148, ptr noundef nonnull @__func__.SSL_CTX_use_RSAPrivateKey_file) #3
  tail call void (i32, i32, ptr, ...) @ERR_set_error(i32 noundef 20, i32 noundef 524290, ptr noundef null) #3
  br label %29

16:                                               ; preds = %11
  switch i32 %2, label %23 [
    i32 2, label %17
    i32 1, label %19
  ]

17:                                               ; preds = %16
  %18 = tail call ptr @d2i_RSAPrivateKey_bio(ptr noundef nonnull %8, ptr noundef null) #3
  br label %24

19:                                               ; preds = %16
  %20 = tail call ptr @SSL_CTX_get_default_passwd_cb(ptr noundef %0) #3
  %21 = tail call ptr @SSL_CTX_get_default_passwd_cb_userdata(ptr noundef %0) #3
  %22 = tail call ptr @PEM_read_bio_RSAPrivateKey(ptr noundef nonnull %8, ptr noundef null, ptr noundef %20, ptr noundef %21) #3
  br label %24

23:                                               ; preds = %16
  tail call void @ERR_new() #3
  tail call void @ERR_set_debug(ptr noundef nonnull @.str, i32 noundef 160, ptr noundef nonnull @__func__.SSL_CTX_use_RSAPrivateKey_file) #3
  tail call void (i32, i32, ptr, ...) @ERR_set_error(i32 noundef 20, i32 noundef 124, ptr noundef null) #3
  br label %29

24:                                               ; preds = %19, %17
  %.018 = phi i32 [ 524301, %17 ], [ 524297, %19 ]
  %.0 = phi ptr [ %18, %17 ], [ %22, %19 ]
  %25 = icmp eq ptr %.0, null
  br i1 %25, label %26, label %27

26:                                               ; preds = %24
  tail call void @ERR_new() #3
  tail call void @ERR_set_debug(ptr noundef nonnull @.str, i32 noundef 164, ptr noundef nonnull @__func__.SSL_CTX_use_RSAPrivateKey_file) #3
  tail call void (i32, i32, ptr, ...) @ERR_set_error(i32 noundef 20, i32 noundef %.018, ptr noundef null) #3
  br label %29

27:                                               ; preds = %24
  %28 = tail call i32 @SSL_CTX_use_RSAPrivateKey(ptr noundef %0, ptr noundef nonnull %.0)
  tail call void @RSA_free(ptr noundef nonnull %.0) #3
  br label %29

29:                                               ; preds = %27, %26, %23, %15, %10, %5
  %.017 = phi i32 [ 0, %5 ], [ 0, %10 ], [ 0, %15 ], [ 0, %26 ], [ %28, %27 ], [ 0, %23 ]
  %.016 = phi ptr [ null, %5 ], [ null, %10 ], [ %8, %15 ], [ %8, %26 ], [ %8, %27 ], [ %8, %23 ]
  %30 = tail call i32 @BIO_free(ptr noundef %.016) #3
  ret i32 %.017
}